target datalayout = "e-m:e-p270:32:32-p271:32:32-p272:64:64-i64:64-i128:128-f80:128-n8:16:32:64-S128"
target triple = "x86_64-pc-linux-gnu"

%struct.evp_cipher_st = type { i32, i32, i32, i32, i64, i32, ptr, ptr, ptr, i32, ptr, ptr, ptr, ptr, i32, ptr, ptr, ptr, %struct.CRYPTO_REF_COUNT, ptr, ptr, ptr, ptr, ptr, ptr, ptr, ptr, ptr, ptr, ptr, ptr, ptr, ptr, ptr, ptr, ptr, ptr, ptr, ptr }
%struct.CRYPTO_REF_COUNT = type { i32 }

; Function Attrs: nounwind uwtable
define ptr @EVP_CIPHER_meth_new(i32 noundef %0, i32 noundef %1, i32 noundef %2) #0 {
  %4 = alloca i32, align 4
  %5 = alloca i32, align 4
  %6 = alloca i32, align 4
  %7 = alloca ptr, align 8
  store i32 %0, ptr %4, align 4, !tbaa !3
  store i32 %1, ptr %5, align 4, !tbaa !3
  store i32 %2, ptr %6, align 4, !tbaa !3
  call void @llvm.lifetime.start.p0(i64 8, ptr %7) #4
  %8 = call ptr @evp_cipher_new()
  store ptr %8, ptr %7, align 8, !tbaa !7
  %9 = load ptr, ptr %7, align 8, !tbaa !7
  %10 = icmp ne ptr %9, null
  br i1 %10, label %11, label %23

11:                                               ; preds = %3
  %12 = load i32, ptr %4, align 4, !tbaa !3
  %13 = load ptr, ptr %7, align 8, !tbaa !7
  %14 = getelementptr inbounds nuw %struct.evp_cipher_st, ptr %13, i32 0, i32 0
  store i32 %12, ptr %14, align 8, !tbaa !10
  %15 = load i32, ptr %5, align 4, !tbaa !3
  %16 = load ptr, ptr %7, align 8, !tbaa !7
  %17 = getelementptr inbounds nuw %struct.evp_cipher_st, ptr %16, i32 0, i32 1
  store i32 %15, ptr %17, align 4, !tbaa !16
  %18 = load i32, ptr %6, align 4, !tbaa !3
  %19 = load ptr, ptr %7, align 8, !tbaa !7
  %20 = getelementptr inbounds nuw %struct.evp_cipher_st, ptr %19, i32 0, i32 2
  store i32 %18, ptr %20, align 8, !tbaa !17
  %21 = load ptr, ptr %7, align 8, !tbaa !7
  %22 = getelementptr inbounds nuw %struct.evp_cipher_st, ptr %21, i32 0, i32 5
  store i32 2, ptr %22, align 8, !tbaa !18
  br label %23

23:                                               ; preds = %11, %3
  %24 = load ptr, ptr %7, align 8, !tbaa !7
  call void @llvm.lifetime.end.p0(i64 8, ptr %7) #4
  ret ptr %24
}

; Function Attrs: nounwind uwtable
define ptr @EVP_CIPHER_meth_dup(ptr noundef %0) #0 {
  %2 = alloca ptr, align 8
  %3 = alloca ptr, align 8
  %4 = alloca ptr, align 8
  %5 = alloca i32, align 4
  %6 = alloca %struct.CRYPTO_REF_COUNT, align 4
  store ptr %0, ptr %3, align 8, !tbaa !7
  call void @llvm.lifetime.start.p0(i64 8, ptr %4) #4
  store ptr null, ptr %4, align 8, !tbaa !7
  %7 = load ptr, ptr %3, align 8, !tbaa !7
  %8 = getelementptr inbounds nuw %struct.evp_cipher_st, ptr %7, i32 0, i32 17
  %9 = load ptr, ptr %8, align 8, !tbaa !19
  %10 = icmp ne ptr %9, null
  br i1 %10, label %11, label %12

11:                                               ; preds = %1
  store ptr null, ptr %2, align 8
  store i32 1, ptr %5, align 4
  br label %35

12:                                               ; preds = %1
  %13 = load ptr, ptr %3, align 8, !tbaa !7
  %14 = getelementptr inbounds nuw %struct.evp_cipher_st, ptr %13, i32 0, i32 0
  %15 = load i32, ptr %14, align 8, !tbaa !10
  %16 = load ptr, ptr %3, align 8, !tbaa !7
  %17 = getelementptr inbounds nuw %struct.evp_cipher_st, ptr %16, i32 0, i32 1
  %18 = load i32, ptr %17, align 4, !tbaa !16
  %19 = load ptr, ptr %3, align 8, !tbaa !7
  %20 = getelementptr inbounds nuw %struct.evp_cipher_st, ptr %19, i32 0, i32 2
  %21 = load i32, ptr %20, align 8, !tbaa !17
  %22 = call ptr @EVP_CIPHER_meth_new(i32 noundef %15, i32 noundef %18, i32 noundef %21)
  store ptr %22, ptr %4, align 8, !tbaa !7
  %23 = icmp ne ptr %22, null
  br i1 %23, label %24, label %33

24:                                               ; preds = %12
  call void @llvm.lifetime.start.p0(i64 4, ptr %6) #4
  %25 = load ptr, ptr %4, align 8, !tbaa !7
  %26 = getelementptr inbounds nuw %struct.evp_cipher_st, ptr %25, i32 0, i32 18
  call void @llvm.memcpy.p0.p0.i64(ptr align 4 %6, ptr align 8 %26, i64 4, i1 false), !tbaa.struct !20
  %27 = load ptr, ptr %4, align 8, !tbaa !7
  %28 = load ptr, ptr %3, align 8, !tbaa !7
  call void @llvm.memcpy.p0.p0.i64(ptr align 8 %27, ptr align 8 %28, i64 296, i1 false)
  %29 = load ptr, ptr %4, align 8, !tbaa !7
  %30 = getelementptr inbounds nuw %struct.evp_cipher_st, ptr %29, i32 0, i32 18
  call void @llvm.memcpy.p0.p0.i64(ptr align 8 %30, ptr align 4 %6, i64 4, i1 false), !tbaa.struct !20
  %31 = load ptr, ptr %4, align 8, !tbaa !7
  %32 = getelementptr inbounds nuw %struct.evp_cipher_st, ptr %31, i32 0, i32 5
  store i32 2, ptr %32, align 8, !tbaa !18
  call void @llvm.lifetime.end.p0(i64 4, ptr %6) #4
  br label %33

33:                                               ; preds = %24, %12
  %34 = load ptr, ptr %4, align 8, !tbaa !7
  store ptr %34, ptr %2, align 8
  store i32 1, ptr %5, align 4
  br label %35

35:                                               ; preds = %33, %11
  call void @llvm.lifetime.end.p0(i64 8, ptr %4) #4
  %36 = load ptr, ptr %2, align 8
  ret ptr %36
}