; Function Attrs: nounwind uwtable
define ptr @EVP_CIPHER_meth_dup(ptr noundef readonly captures(none) %0) local_unnamed_addr #0 {
  %2 = getelementptr inbounds nuw i8, ptr %0, i64 120
  %3 = load ptr, ptr %2, align 8, !tbaa !16
  %.not = icmp eq ptr %3, null
  br i1 %.not, label %4, label %EVP_CIPHER_meth_new.exit.thread

4:                                                ; preds = %1
  %5 = load i32, ptr %0, align 8, !tbaa !3
  %6 = getelementptr inbounds nuw i8, ptr %0, i64 4
  %7 = load i32, ptr %6, align 4, !tbaa !13
  %8 = getelementptr inbounds nuw i8, ptr %0, i64 8
  %9 = load i32, ptr %8, align 8, !tbaa !14
  %10 = tail call ptr @evp_cipher_new() #5
  %.not.i = icmp eq ptr %10, null
  br i1 %.not.i, label %EVP_CIPHER_meth_new.exit.thread, label %11

11:                                               ; preds = %4
  store i32 %5, ptr %10, align 8, !tbaa !3
  %12 = getelementptr inbounds nuw i8, ptr %10, i64 4
  store i32 %7, ptr %12, align 4, !tbaa !13
  %13 = getelementptr inbounds nuw i8, ptr %10, i64 8
  store i32 %9, ptr %13, align 8, !tbaa !14
  %14 = getelementptr inbounds nuw i8, ptr %10, i64 24
  store i32 2, ptr %14, align 8, !tbaa !15
  %15 = getelementptr inbounds nuw i8, ptr %10, i64 128
  %.sroa.0.0.copyload = load i32, ptr %15, align 8, !tbaa !17
  tail call void @llvm.memcpy.p0.p0.i64(ptr noundef nonnull align 8 dereferenceable(296) %10, ptr noundef nonnull align 8 dereferenceable(296) %0, i64 296, i1 false)
  store i32 %.sroa.0.0.copyload, ptr %15, align 8, !tbaa !17
  store i32 2, ptr %14, align 8, !tbaa !15
  br label %EVP_CIPHER_meth_new.exit.thread

EVP_CIPHER_meth_new.exit.thread:                  ; preds = %4, %11, %1
  %.0 = phi ptr [ null, %1 ], [ %10, %11 ], [ null, %4 ]
  ret ptr %.0
}